; Function Attrs: mustprogress nounwind uwtable
define dso_local void @_ZN4llvm12GISelCSEInfo20recordNewInstructionEPNS_12MachineInstrE(ptr noundef nonnull align 8 dereferenceable(361) %0, ptr noundef %1) local_unnamed_addr #0 align 2 {
  %3 = getelementptr inbounds nuw i8, ptr %1, i64 68
  %4 = load i16, ptr %3, align 4
  %5 = zext i16 %4 to i32
  %6 = getelementptr inbounds nuw i8, ptr %0, i64 200
  %7 = load ptr, ptr %6, align 8
  %8 = load ptr, ptr %7, align 8
  %9 = getelementptr inbounds i8, ptr %8, i64 16
  %10 = load ptr, ptr %9, align 8
  %11 = tail call noundef zeroext i1 %10(ptr noundef nonnull align 8 dereferenceable(8) %7, i32 noundef %5) #17
  br i1 %11, label %12, label %14

12:                                               ; preds = %2
  %13 = getelementptr inbounds nuw i8, ptr %0, i64 232
  tail call void @_ZN4llvm13GISelWorkListILj8EE6insertEPNS_12MachineInstrE(ptr noundef nonnull align 8 dereferenceable(104) %13, ptr noundef nonnull %1)
  br label %14

14:                                               ; preds = %12, %2
  ret void
}